target datalayout = "e-m:e-p270:32:32-p271:32:32-p272:64:64-i64:64-i128:128-f80:128-n8:16:32:64-S128"
target triple = "x86_64-pc-linux-gnu"

%struct.uat_esp_sa_record_t = type { i8, ptr, ptr, ptr, i8, ptr, ptr, i32, i8, ptr, i8, ptr, ptr, i32, i8, i32 }

; Function Attrs: null_pointer_is_valid sspstrong uwtable
define internal void @uat_esp_sa_record_free_cb(ptr noundef %0) #0 {
  %2 = alloca ptr, align 8
  %3 = alloca ptr, align 8
  store ptr %0, ptr %2, align 8
  call void @llvm.lifetime.start.p0(i64 8, ptr %3) #17
  %4 = load ptr, ptr %2, align 8
  store ptr %4, ptr %3, align 8
  %5 = load ptr, ptr %3, align 8
  %6 = getelementptr inbounds nuw %struct.uat_esp_sa_record_t, ptr %5, i32 0, i32 1
  %7 = load ptr, ptr %6, align 8
  call void @g_free(ptr noundef %7)
  %8 = load ptr, ptr %3, align 8
  %9 = getelementptr inbounds nuw %struct.uat_esp_sa_record_t, ptr %8, i32 0, i32 2
  %10 = load ptr, ptr %9, align 8
  call void @g_free(ptr noundef %10)
  %11 = load ptr, ptr %3, align 8
  %12 = getelementptr inbounds nuw %struct.uat_esp_sa_record_t, ptr %11, i32 0, i32 3
  %13 = load ptr, ptr %12, align 8
  call void @g_free(ptr noundef %13)
  %14 = load ptr, ptr %3, align 8
  %15 = getelementptr inbounds nuw %struct.uat_esp_sa_record_t, ptr %14, i32 0, i32 5
  %16 = load ptr, ptr %15, align 8
  call void @g_free(ptr noundef %16)
  %17 = load ptr, ptr %3, align 8
  %18 = getelementptr inbounds nuw %struct.uat_esp_sa_record_t, ptr %17, i32 0, i32 6
  %19 = load ptr, ptr %18, align 8
  call void @g_free(ptr noundef %19)
  %20 = load ptr, ptr %3, align 8
  %21 = getelementptr inbounds nuw %struct.uat_esp_sa_record_t, ptr %20, i32 0, i32 11
  %22 = load ptr, ptr %21, align 8
  call void @g_free(ptr noundef %22)
  %23 = load ptr, ptr %3, align 8
  %24 = getelementptr inbounds nuw %struct.uat_esp_sa_record_t, ptr %23, i32 0, i32 12
  %25 = load ptr, ptr %24, align 8
  call void @g_free(ptr noundef %25)
  %26 = load ptr, ptr %3, align 8
  %27 = getelementptr inbounds nuw %struct.uat_esp_sa_record_t, ptr %26, i32 0, i32 8
  %28 = load i8, ptr %27, align 4, !range !6, !noundef !7
  %29 = trunc i8 %28 to i1
  br i1 %29, label %30, label %36

30:                                               ; preds = %1
  %31 = load ptr, ptr %3, align 8
  %32 = getelementptr inbounds nuw %struct.uat_esp_sa_record_t, ptr %31, i32 0, i32 9
  %33 = load ptr, ptr %32, align 8
  call void @gcry_cipher_close(ptr noundef %33)
  %34 = load ptr, ptr %3, align 8
  %35 = getelementptr inbounds nuw %struct.uat_esp_sa_record_t, ptr %34, i32 0, i32 8
  store i8 0, ptr %35, align 4
  br label %36

36:                                               ; preds = %30, %1
  call void @llvm.lifetime.end.p0(i64 8, ptr %3) #17
  ret void
}