; Function Attrs: null_pointer_is_valid sspstrong uwtable
define internal void @uat_esp_sa_record_free_cb(ptr noundef captures(none) %0) #0 {
  %2 = getelementptr inbounds nuw i8, ptr %0, i64 8
  %3 = load ptr, ptr %2, align 8
  tail call void @g_free(ptr noundef %3)
  %4 = getelementptr inbounds nuw i8, ptr %0, i64 16
  %5 = load ptr, ptr %4, align 8
  tail call void @g_free(ptr noundef %5)
  %6 = getelementptr inbounds nuw i8, ptr %0, i64 24
  %7 = load ptr, ptr %6, align 8
  tail call void @g_free(ptr noundef %7)
  %8 = getelementptr inbounds nuw i8, ptr %0, i64 40
  %9 = load ptr, ptr %8, align 8
  tail call void @g_free(ptr noundef %9)
  %10 = getelementptr inbounds nuw i8, ptr %0, i64 48
  %11 = load ptr, ptr %10, align 8
  tail call void @g_free(ptr noundef %11)
  %12 = getelementptr inbounds nuw i8, ptr %0, i64 80
  %13 = load ptr, ptr %12, align 8
  tail call void @g_free(ptr noundef %13)
  %14 = getelementptr inbounds nuw i8, ptr %0, i64 88
  %15 = load ptr, ptr %14, align 8
  tail call void @g_free(ptr noundef %15)
  %16 = getelementptr inbounds nuw i8, ptr %0, i64 60
  %17 = load i8, ptr %16, align 4, !range !6, !noundef !7
  %18 = trunc nuw i8 %17 to i1
  br i1 %18, label %19, label %22

19:                                               ; preds = %1
  %20 = getelementptr inbounds nuw i8, ptr %0, i64 64
  %21 = load ptr, ptr %20, align 8
  tail call void @gcry_cipher_close(ptr noundef %21)
  store i8 0, ptr %16, align 4
  br label %22

22:                                               ; preds = %19, %1
  ret void
}